; Function Attrs: nounwind sspstrong uwtable
define dso_local void @tcg_gen_ori_i32(ptr noundef %0, ptr noundef %1, i32 noundef %2) local_unnamed_addr #2 {
  switch i32 %2, label %27 [
    i32 -1, label %4
    i32 0, label %16
  ]

4:                                                ; preds = %3
  %5 = tail call ptr @tcg_constant_i32(i32 noundef -1) #6
  %.not.i.i = icmp eq ptr %0, %5
  br i1 %.not.i.i, label %tcg_gen_movi_i32.exit, label %6

6:                                                ; preds = %4
  %7 = tail call align 8 ptr @llvm.threadlocal.address.p0(ptr align 8 @tcg_ctx)
  %8 = load ptr, ptr %7, align 8
  %9 = ptrtoint ptr %0 to i64
  %10 = getelementptr inbounds nuw i8, ptr %8, i64 %9
  %11 = ptrtoint ptr %10 to i64
  %12 = ptrtoint ptr %5 to i64
  %13 = getelementptr inbounds nuw i8, ptr %8, i64 %12
  %14 = ptrtoint ptr %13 to i64
  %15 = tail call ptr @tcg_gen_op2(i32 noundef 5, i32 noundef 0, i64 noundef %11, i64 noundef %14)
  br label %tcg_gen_movi_i32.exit

16:                                               ; preds = %3
  %.not.i = icmp eq ptr %0, %1
  br i1 %.not.i, label %tcg_gen_movi_i32.exit, label %17

17:                                               ; preds = %16
  %18 = tail call align 8 ptr @llvm.threadlocal.address.p0(ptr align 8 @tcg_ctx)
  %19 = load ptr, ptr %18, align 8
  %20 = ptrtoint ptr %0 to i64
  %21 = getelementptr inbounds nuw i8, ptr %19, i64 %20
  %22 = ptrtoint ptr %21 to i64
  %23 = ptrtoint ptr %1 to i64
  %24 = getelementptr inbounds nuw i8, ptr %19, i64 %23
  %25 = ptrtoint ptr %24 to i64
  %26 = tail call ptr @tcg_gen_op2(i32 noundef 5, i32 noundef 0, i64 noundef %22, i64 noundef %25)
  br label %tcg_gen_movi_i32.exit

27:                                               ; preds = %3
  %28 = tail call ptr @tcg_constant_i32(i32 noundef %2) #6
  %29 = tail call align 8 ptr @llvm.threadlocal.address.p0(ptr align 8 @tcg_ctx)
  %30 = load ptr, ptr %29, align 8
  %31 = ptrtoint ptr %0 to i64
  %32 = getelementptr inbounds nuw i8, ptr %30, i64 %31
  %33 = ptrtoint ptr %32 to i64
  %34 = ptrtoint ptr %1 to i64
  %35 = getelementptr inbounds nuw i8, ptr %30, i64 %34
  %36 = ptrtoint ptr %35 to i64
  %37 = ptrtoint ptr %28 to i64
  %38 = getelementptr inbounds nuw i8, ptr %30, i64 %37
  %39 = ptrtoint ptr %38 to i64
  %40 = tail call ptr @tcg_gen_op3(i32 noundef 27, i32 noundef 0, i64 noundef %33, i64 noundef %36, i64 noundef %39)
  br label %tcg_gen_movi_i32.exit

tcg_gen_movi_i32.exit:                            ; preds = %17, %16, %6, %4, %27
  ret void
}